target datalayout = "e-m:e-p270:32:32-p271:32:32-p272:64:64-i64:64-i128:128-f80:128-n8:16:32:64-S128"
target triple = "x86_64-pc-linux-gnu"

%struct.gmx_stats = type { double, double, double, double, double, double, double, double, double, double, double, ptr, ptr, ptr, ptr, i32, i32, i32 }

@.str.1 = private unnamed_addr constant [131 x i8] c"generated/home/dtcxzyw/WorkSpace/Projects/compilers/llvm-opt-benchmark/bench/gromacs/gromacs/src/gromacs/statistics/statistics.cpp\00", align 1
@.str.2 = private unnamed_addr constant [9 x i8] c"stats->x\00", align 1
@.str.3 = private unnamed_addr constant [9 x i8] c"stats->y\00", align 1
@.str.4 = private unnamed_addr constant [10 x i8] c"stats->dx\00", align 1
@.str.5 = private unnamed_addr constant [10 x i8] c"stats->dy\00", align 1

; Function Attrs: mustprogress uwtable
define internal void @_ZL15gmx_srenew_implIdEvPKcS1_iRPT_m(ptr noundef %0, ptr noundef %1, i32 noundef %2, ptr noundef nonnull align 8 dereferenceable(8) %3, i64 noundef %4) #0 {
  %6 = alloca ptr, align 8
  %7 = alloca ptr, align 8
  %8 = alloca i32, align 4
  %9 = alloca ptr, align 8
  %10 = alloca i64, align 8
  store ptr %0, ptr %6, align 8
  store ptr %1, ptr %7, align 8
  store i32 %2, ptr %8, align 4
  store ptr %3, ptr %9, align 8
  store i64 %4, ptr %10, align 8
  %11 = load ptr, ptr %6, align 8
  %12 = load ptr, ptr %7, align 8
  %13 = load i32, ptr %8, align 4
  %14 = load ptr, ptr %9, align 8
  %15 = load ptr, ptr %14, align 8
  %16 = load i64, ptr %10, align 8
  %17 = call noundef ptr @_Z12save_reallocPKcS0_iPvmm(ptr noundef %11, ptr noundef %12, i32 noundef %13, ptr noundef %15, i64 noundef %16, i64 noundef 8)
  %18 = load ptr, ptr %9, align 8
  store ptr %17, ptr %18, align 8
  ret void
}

; Function Attrs: mustprogress uwtable
define void @_Z19gmx_stats_add_pointP9gmx_statsdddd(ptr noundef %0, double noundef %1, double noundef %2, double noundef %3, double noundef %4) #0 {
  %6 = alloca ptr, align 8
  %7 = alloca double, align 8
  %8 = alloca double, align 8
  %9 = alloca double, align 8
  %10 = alloca double, align 8
  %11 = alloca ptr, align 8
  %12 = alloca i32, align 4
  store ptr %0, ptr %6, align 8
  store double %1, ptr %7, align 8
  store double %2, ptr %8, align 8
  store double %3, ptr %9, align 8
  store double %4, ptr %10, align 8
  %13 = load ptr, ptr %6, align 8
  store ptr %13, ptr %11, align 8
  %14 = load ptr, ptr %11, align 8
  %15 = getelementptr inbounds %struct.gmx_stats, ptr %14, i32 0, i32 16
  %16 = load i32, ptr %15, align 4
  %17 = add nsw i32 %16, 1
  %18 = load ptr, ptr %11, align 8
  %19 = getelementptr inbounds %struct.gmx_stats, ptr %18, i32 0, i32 17
  %20 = load i32, ptr %19, align 8
  %21 = icmp sge i32 %17, %20
  br i1 %21, label %22, label %98

22:                                               ; preds = %5
  %23 = load ptr, ptr %11, align 8
  %24 = getelementptr inbounds %struct.gmx_stats, ptr %23, i32 0, i32 17
  %25 = load i32, ptr %24, align 8
  %26 = icmp eq i32 %25, 0
  br i1 %26, label %27, label %30

27:                                               ; preds = %22
  %28 = load ptr, ptr %11, align 8
  %29 = getelementptr inbounds %struct.gmx_stats, ptr %28, i32 0, i32 17
  store i32 1024, ptr %29, align 8
  br label %35

30:                                               ; preds = %22
  %31 = load ptr, ptr %11, align 8
  %32 = getelementptr inbounds %struct.gmx_stats, ptr %31, i32 0, i32 17
  %33 = load i32, ptr %32, align 8
  %34 = mul nsw i32 %33, 2
  store i32 %34, ptr %32, align 8
  br label %35

35:                                               ; preds = %30, %27
  %36 = load ptr, ptr %11, align 8
  %37 = getelementptr inbounds %struct.gmx_stats, ptr %36, i32 0, i32 11
  %38 = load ptr, ptr %11, align 8
  %39 = getelementptr inbounds %struct.gmx_stats, ptr %38, i32 0, i32 17
  %40 = load i32, ptr %39, align 8
  %41 = sext i32 %40 to i64
  call void @_ZL15gmx_srenew_implIdEvPKcS1_iRPT_m(ptr noundef @.str.2, ptr noundef @.str.1, i32 noundef 91, ptr noundef nonnull align 8 dereferenceable(8) %37, i64 noundef %41)
  %42 = load ptr, ptr %11, align 8
  %43 = getelementptr inbounds %struct.gmx_stats, ptr %42, i32 0, i32 12
  %44 = load ptr, ptr %11, align 8
  %45 = getelementptr inbounds %struct.gmx_stats, ptr %44, i32 0, i32 17
  %46 = load i32, ptr %45, align 8
  %47 = sext i32 %46 to i64
  call void @_ZL15gmx_srenew_implIdEvPKcS1_iRPT_m(ptr noundef @.str.3, ptr noundef @.str.1, i32 noundef 92, ptr noundef nonnull align 8 dereferenceable(8) %43, i64 noundef %47)
  %48 = load ptr, ptr %11, align 8
  %49 = getelementptr inbounds %struct.gmx_stats, ptr %48, i32 0, i32 13
  %50 = load ptr, ptr %11, align 8
  %51 = getelementptr inbounds %struct.gmx_stats, ptr %50, i32 0, i32 17
  %52 = load i32, ptr %51, align 8
  %53 = sext i32 %52 to i64
  call void @_ZL15gmx_srenew_implIdEvPKcS1_iRPT_m(ptr noundef @.str.4, ptr noundef @.str.1, i32 noundef 93, ptr noundef nonnull align 8 dereferenceable(8) %49, i64 noundef %53)
  %54 = load ptr, ptr %11, align 8
  %55 = getelementptr inbounds %struct.gmx_stats, ptr %54, i32 0, i32 14
  %56 = load ptr, ptr %11, align 8
  %57 = getelementptr inbounds %struct.gmx_stats, ptr %56, i32 0, i32 17
  %58 = load i32, ptr %57, align 8
  %59 = sext i32 %58 to i64
  call void @_ZL15gmx_srenew_implIdEvPKcS1_iRPT_m(ptr noundef @.str.5, ptr noundef @.str.1, i32 noundef 94, ptr noundef nonnull align 8 dereferenceable(8) %55, i64 noundef %59)
  %60 = load ptr, ptr %11, align 8
  %61 = getelementptr inbounds %struct.gmx_stats, ptr %60, i32 0, i32 16
  %62 = load i32, ptr %61, align 4
  store i32 %62, ptr %12, align 4
  br label %63

63:                                               ; preds = %94, %35
  %64 = load i32, ptr %12, align 4
  %65 = load ptr, ptr %11, align 8
  %66 = getelementptr inbounds %struct.gmx_stats, ptr %65, i32 0, i32 17
  %67 = load i32, ptr %66, align 8
  %68 = icmp slt i32 %64, %67
  br i1 %68, label %69, label %97

69:                                               ; preds = %63
  %70 = load ptr, ptr %11, align 8
  %71 = getelementptr inbounds %struct.gmx_stats, ptr %70, i32 0, i32 11
  %72 = load ptr, ptr %71, align 8
  %73 = load i32, ptr %12, align 4
  %74 = sext i32 %73 to i64
  %75 = getelementptr inbounds double, ptr %72, i64 %74
  store double 0.000000e+00, ptr %75, align 8
  %76 = load ptr, ptr %11, align 8
  %77 = getelementptr inbounds %struct.gmx_stats, ptr %76, i32 0, i32 12
  %78 = load ptr, ptr %77, align 8
  %79 = load i32, ptr %12, align 4
  %80 = sext i32 %79 to i64
  %81 = getelementptr inbounds double, ptr %78, i64 %80
  store double 0.000000e+00, ptr %81, align 8
  %82 = load ptr, ptr %11, align 8
  %83 = getelementptr inbounds %struct.gmx_stats, ptr %82, i32 0, i32 13
  %84 = load ptr, ptr %83, align 8
  %85 = load i32, ptr %12, align 4
  %86 = sext i32 %85 to i64
  %87 = getelementptr inbounds double, ptr %84, i64 %86
  store double 0.000000e+00, ptr %87, align 8
  %88 = load ptr, ptr %11, align 8
  %89 = getelementptr inbounds %struct.gmx_stats, ptr %88, i32 0, i32 14
  %90 = load ptr, ptr %89, align 8
  %91 = load i32, ptr %12, align 4
  %92 = sext i32 %91 to i64
  %93 = getelementptr inbounds double, ptr %90, i64 %92
  store double 0.000000e+00, ptr %93, align 8
  br label %94

94:                                               ; preds = %69
  %95 = load i32, ptr %12, align 4
  %96 = add nsw i32 %95, 1
  store i32 %96, ptr %12, align 4
  br label %63, !llvm.loop !5

97:                                               ; preds = %63
  br label %98

98:                                               ; preds = %97, %5
  %99 = load double, ptr %7, align 8
  %100 = load ptr, ptr %11, align 8
  %101 = getelementptr inbounds %struct.gmx_stats, ptr %100, i32 0, i32 11
  %102 = load ptr, ptr %101, align 8
  %103 = load ptr, ptr %11, align 8
  %104 = getelementptr inbounds %struct.gmx_stats, ptr %103, i32 0, i32 16
  %105 = load i32, ptr %104, align 4
  %106 = sext i32 %105 to i64
  %107 = getelementptr inbounds double, ptr %102, i64 %106
  store double %99, ptr %107, align 8
  %108 = load double, ptr %8, align 8
  %109 = load ptr, ptr %11, align 8
  %110 = getelementptr inbounds %struct.gmx_stats, ptr %109, i32 0, i32 12
  %111 = load ptr, ptr %110, align 8
  %112 = load ptr, ptr %11, align 8
  %113 = getelementptr inbounds %struct.gmx_stats, ptr %112, i32 0, i32 16
  %114 = load i32, ptr %113, align 4
  %115 = sext i32 %114 to i64
  %116 = getelementptr inbounds double, ptr %111, i64 %115
  store double %108, ptr %116, align 8
  %117 = load double, ptr %9, align 8
  %118 = load ptr, ptr %11, align 8
  %119 = getelementptr inbounds %struct.gmx_stats, ptr %118, i32 0, i32 13
  %120 = load ptr, ptr %119, align 8
  %121 = load ptr, ptr %11, align 8
  %122 = getelementptr inbounds %struct.gmx_stats, ptr %121, i32 0, i32 16
  %123 = load i32, ptr %122, align 4
  %124 = sext i32 %123 to i64
  %125 = getelementptr inbounds double, ptr %120, i64 %124
  store double %117, ptr %125, align 8
  %126 = load double, ptr %10, align 8
  %127 = load ptr, ptr %11, align 8
  %128 = getelementptr inbounds %struct.gmx_stats, ptr %127, i32 0, i32 14
  %129 = load ptr, ptr %128, align 8
  %130 = load ptr, ptr %11, align 8
  %131 = getelementptr inbounds %struct.gmx_stats, ptr %130, i32 0, i32 16
  %132 = load i32, ptr %131, align 4
  %133 = sext i32 %132 to i64
  %134 = getelementptr inbounds double, ptr %129, i64 %133
  store double %126, ptr %134, align 8
  %135 = load ptr, ptr %11, align 8
  %136 = getelementptr inbounds %struct.gmx_stats, ptr %135, i32 0, i32 16
  %137 = load i32, ptr %136, align 4
  %138 = add nsw i32 %137, 1
  store i32 %138, ptr %136, align 4
  %139 = load ptr, ptr %11, align 8
  %140 = getelementptr inbounds %struct.gmx_stats, ptr %139, i32 0, i32 15
  store i32 0, ptr %140, align 8
  ret void
}