; Function Attrs: mustprogress uwtable
define void @_Z19gmx_stats_add_pointP9gmx_statsdddd(ptr nocapture noundef %0, double noundef %1, double noundef %2, double noundef %3, double noundef %4) local_unnamed_addr #0 {
  %6 = getelementptr inbounds i8, ptr %0, i64 124
  %7 = load i32, ptr %6, align 4
  %8 = add nsw i32 %7, 1
  %9 = getelementptr inbounds i8, ptr %0, i64 128
  %10 = load i32, ptr %9, align 8
  %.not = icmp slt i32 %8, %10
  br i1 %.not, label %.loopexit, label %11

11:                                               ; preds = %5
  %12 = icmp eq i32 %10, 0
  %13 = shl nsw i32 %10, 1
  %storemerge = select i1 %12, i32 1024, i32 %13
  store i32 %storemerge, ptr %9, align 8
  %14 = getelementptr inbounds i8, ptr %0, i64 88
  %15 = sext i32 %storemerge to i64
  %16 = load ptr, ptr %14, align 8
  %17 = tail call noundef ptr @_Z12save_reallocPKcS0_iPvmm(ptr noundef nonnull @.str.2, ptr noundef nonnull @.str.1, i32 noundef 91, ptr noundef %16, i64 noundef %15, i64 noundef 8)
  store ptr %17, ptr %14, align 8
  %18 = getelementptr inbounds i8, ptr %0, i64 96
  %19 = load i32, ptr %9, align 8
  %20 = sext i32 %19 to i64
  %21 = load ptr, ptr %18, align 8
  %22 = tail call noundef ptr @_Z12save_reallocPKcS0_iPvmm(ptr noundef nonnull @.str.3, ptr noundef nonnull @.str.1, i32 noundef 92, ptr noundef %21, i64 noundef %20, i64 noundef 8)
  store ptr %22, ptr %18, align 8
  %23 = getelementptr inbounds i8, ptr %0, i64 104
  %24 = load i32, ptr %9, align 8
  %25 = sext i32 %24 to i64
  %26 = load ptr, ptr %23, align 8
  %27 = tail call noundef ptr @_Z12save_reallocPKcS0_iPvmm(ptr noundef nonnull @.str.4, ptr noundef nonnull @.str.1, i32 noundef 93, ptr noundef %26, i64 noundef %25, i64 noundef 8)
  store ptr %27, ptr %23, align 8
  %28 = getelementptr inbounds i8, ptr %0, i64 112
  %29 = load i32, ptr %9, align 8
  %30 = sext i32 %29 to i64
  %31 = load ptr, ptr %28, align 8
  %32 = tail call noundef ptr @_Z12save_reallocPKcS0_iPvmm(ptr noundef nonnull @.str.5, ptr noundef nonnull @.str.1, i32 noundef 94, ptr noundef %31, i64 noundef %30, i64 noundef 8)
  store ptr %32, ptr %28, align 8
  %33 = load i32, ptr %6, align 4
  %34 = load i32, ptr %9, align 8
  %35 = icmp slt i32 %33, %34
  br i1 %35, label %.lr.ph.preheader, label %.loopexit

.lr.ph.preheader:                                 ; preds = %11
  %36 = sext i32 %33 to i64
  br label %.lr.ph

.lr.ph:                                           ; preds = %.lr.ph.preheader, %.lr.ph
  %indvars.iv = phi i64 [ %36, %.lr.ph.preheader ], [ %indvars.iv.next, %.lr.ph ]
  %37 = load ptr, ptr %14, align 8
  %38 = getelementptr inbounds double, ptr %37, i64 %indvars.iv
  store double 0.000000e+00, ptr %38, align 8
  %39 = load ptr, ptr %18, align 8
  %40 = getelementptr inbounds double, ptr %39, i64 %indvars.iv
  store double 0.000000e+00, ptr %40, align 8
  %41 = load ptr, ptr %23, align 8
  %42 = getelementptr inbounds double, ptr %41, i64 %indvars.iv
  store double 0.000000e+00, ptr %42, align 8
  %43 = load ptr, ptr %28, align 8
  %44 = getelementptr inbounds double, ptr %43, i64 %indvars.iv
  store double 0.000000e+00, ptr %44, align 8
  %indvars.iv.next = add nsw i64 %indvars.iv, 1
  %45 = load i32, ptr %9, align 8
  %46 = sext i32 %45 to i64
  %47 = icmp slt i64 %indvars.iv.next, %46
  br i1 %47, label %.lr.ph, label %.loopexit.loopexit, !llvm.loop !5

.loopexit.loopexit:                               ; preds = %.lr.ph
  %.pre = load i32, ptr %6, align 4
  br label %.loopexit

.loopexit:                                        ; preds = %.loopexit.loopexit, %11, %5
  %48 = phi i32 [ %.pre, %.loopexit.loopexit ], [ %33, %11 ], [ %7, %5 ]
  %49 = getelementptr inbounds i8, ptr %0, i64 88
  %50 = load ptr, ptr %49, align 8
  %51 = sext i32 %48 to i64
  %52 = getelementptr inbounds double, ptr %50, i64 %51
  store double %1, ptr %52, align 8
  %53 = getelementptr inbounds i8, ptr %0, i64 96
  %54 = load ptr, ptr %53, align 8
  %55 = load i32, ptr %6, align 4
  %56 = sext i32 %55 to i64
  %57 = getelementptr inbounds double, ptr %54, i64 %56
  store double %2, ptr %57, align 8
  %58 = getelementptr inbounds i8, ptr %0, i64 104
  %59 = load ptr, ptr %58, align 8
  %60 = load i32, ptr %6, align 4
  %61 = sext i32 %60 to i64
  %62 = getelementptr inbounds double, ptr %59, i64 %61
  store double %3, ptr %62, align 8
  %63 = getelementptr inbounds i8, ptr %0, i64 112
  %64 = load ptr, ptr %63, align 8
  %65 = load i32, ptr %6, align 4
  %66 = sext i32 %65 to i64
  %67 = getelementptr inbounds double, ptr %64, i64 %66
  store double %4, ptr %67, align 8
  %68 = load i32, ptr %6, align 4
  %69 = add nsw i32 %68, 1
  store i32 %69, ptr %6, align 4
  %70 = getelementptr inbounds i8, ptr %0, i64 120
  store i32 0, ptr %70, align 8
  ret void
}